; Function Attrs: mustprogress uwtable
define void @_ZNK8QuantLib30CallableBondConstantVolatility16smileSectionImplEdd(ptr dead_on_unwind noalias writable sret(%"class.boost::shared_ptr.22") align 8 %agg.result, ptr noundef nonnull align 8 dereferenceable(112) %this, double noundef %optionTime, double %0) unnamed_addr #7 align 2 personality ptr @__gxx_personality_v0 {
entry:
  %volatility_ = getelementptr inbounds nuw i8, ptr %this, i64 72
  %call = tail call noundef nonnull align 8 dereferenceable(16) ptr @_ZNK8QuantLib6HandleINS_5QuoteEEptEv(ptr noundef nonnull align 8 dereferenceable(16) %volatility_)
  %1 = load ptr, ptr %call, align 8, !tbaa !45
  %cmp.not.i = icmp eq ptr %1, null
  br i1 %cmp.not.i, label %cond.false.i, label %invoke.cont, !prof !74

cond.false.i:                                     ; preds = %entry
  tail call void @_ZN5boost16assertion_failedEPKcS1_S1_l(ptr noundef nonnull @.str.7, ptr noundef nonnull @__PRETTY_FUNCTION__._ZNK5boost10shared_ptrIN8QuantLib5QuoteEEptEv, ptr noundef nonnull @.str.8, i64 noundef 784)
  %.pre.i = load ptr, ptr %call, align 8, !tbaa !45
  br label %invoke.cont

invoke.cont:                                      ; preds = %cond.false.i, %entry
  %2 = phi ptr [ %1, %entry ], [ %.pre.i, %cond.false.i ]
  %vtable = load ptr, ptr %2, align 8, !tbaa !39
  %vfn = getelementptr inbounds i8, ptr %vtable, i64 16
  %3 = load ptr, ptr %vfn, align 8
  %call3 = tail call noundef double %3(ptr noundef nonnull align 8 dereferenceable(8) %2)
  %call4 = tail call noalias noundef nonnull dereferenceable(200) ptr @_Znwm(i64 noundef 200) #28
  %dayCounter_ = getelementptr inbounds nuw i8, ptr %this, i64 88
  invoke void @_ZN8QuantLib16FlatSmileSectionC1EddRKNS_10DayCounterEdNS_14VolatilityTypeEd(ptr noundef nonnull align 8 dereferenceable(88) %call4, double noundef %optionTime, double noundef %call3, ptr noundef nonnull align 8 dereferenceable(16) %dayCounter_, double noundef 0x47EFFFFFE0000000, i32 noundef 0, double noundef 0.000000e+00)
          to label %invoke.cont6 unwind label %cleanup.action

invoke.cont6:                                     ; preds = %invoke.cont
  store ptr %call4, ptr %agg.result, align 8, !tbaa !75
  %pn.i = getelementptr inbounds nuw i8, ptr %agg.result, i64 8
  store ptr null, ptr %pn.i, align 8, !tbaa !31
  %call.i.i.i = invoke noalias noundef nonnull dereferenceable(24) ptr @_Znwm(i64 noundef 24) #28
          to label %invoke.cont7 unwind label %lpad.i.i.i

lpad.i.i.i:                                       ; preds = %invoke.cont6
  %4 = landingpad { ptr, i32 }
          catch ptr null
  %5 = extractvalue { ptr, i32 } %4, 0
  %6 = tail call ptr @__cxa_begin_catch(ptr %5) #24
  %vtable.i.i.i.i = load ptr, ptr %call4, align 8, !tbaa !39
  %vfn.i.i.i.i = getelementptr inbounds i8, ptr %vtable.i.i.i.i, i64 8
  %7 = load ptr, ptr %vfn.i.i.i.i, align 8
  tail call void %7(ptr noundef nonnull align 8 dereferenceable(88) %call4) #24
  invoke void @__cxa_rethrow() #26
          to label %unreachable.i.i.i unwind label %lpad5.i.i.i

lpad5.i.i.i:                                      ; preds = %lpad.i.i.i
  %8 = landingpad { ptr, i32 }
          cleanup
  invoke void @__cxa_end_catch()
          to label %lpad.body unwind label %terminate.lpad.i.i.i

terminate.lpad.i.i.i:                             ; preds = %lpad5.i.i.i
  %9 = landingpad { ptr, i32 }
          catch ptr null
  %10 = extractvalue { ptr, i32 } %9, 0
  tail call void @__clang_call_terminate(ptr %10) #25
  unreachable

unreachable.i.i.i:                                ; preds = %lpad.i.i.i
  unreachable

invoke.cont7:                                     ; preds = %invoke.cont6
  %use_count_.i.i.i.i.i = getelementptr inbounds nuw i8, ptr %call.i.i.i, i64 8
  store i32 1, ptr %use_count_.i.i.i.i.i, align 8, !tbaa !47
  %weak_count_.i.i.i.i.i = getelementptr inbounds nuw i8, ptr %call.i.i.i, i64 12
  store i32 1, ptr %weak_count_.i.i.i.i.i, align 4, !tbaa !50
  store ptr getelementptr inbounds inrange(-16, 56) (i8, ptr @_ZTVN5boost6detail17sp_counted_impl_pIN8QuantLib16FlatSmileSectionEEE, i64 16), ptr %call.i.i.i, align 8, !tbaa !39
  %px_.i.i.i.i = getelementptr inbounds nuw i8, ptr %call.i.i.i, i64 16
  store ptr %call4, ptr %px_.i.i.i.i, align 8, !tbaa !77
  store ptr %call.i.i.i, ptr %pn.i, align 8, !tbaa !31
  ret void

lpad.body:                                        ; preds = %lpad5.i.i.i
  tail call void @_ZN5boost6detail12shared_countD2Ev(ptr noundef nonnull align 8 dereferenceable(8) %pn.i) #24
  br label %cleanup.done

cleanup.action:                                   ; preds = %invoke.cont
  %11 = landingpad { ptr, i32 }
          cleanup
  tail call void @_ZdlPvm(ptr noundef nonnull %call4, i64 noundef 200) #27
  br label %cleanup.done

cleanup.done:                                     ; preds = %lpad.body, %cleanup.action
  %eh.lpad-body3 = phi { ptr, i32 } [ %11, %cleanup.action ], [ %8, %lpad.body ]
  resume { ptr, i32 } %eh.lpad-body3
}